; Function Attrs: mustprogress nounwind uwtable
define hidden noundef i32 @_ZNK13MulAddS2INode4hashEv(ptr noundef nonnull align 8 dereferenceable(52) %0) unnamed_addr #0 align 2 {
  %2 = getelementptr inbounds i8, ptr %0, i64 8
  %3 = load ptr, ptr %2, align 8
  %4 = getelementptr inbounds i8, ptr %3, i64 8
  %5 = load <4 x ptr>, ptr %4, align 8
  %6 = ptrtoint <4 x ptr> %5 to <4 x i64>
  %7 = tail call i64 @llvm.vector.reduce.add.v4i64(<4 x i64> %6)
  %8 = load ptr, ptr %0, align 8
  %9 = load ptr, ptr %8, align 8
  %10 = tail call noundef i32 %9(ptr noundef nonnull align 8 dereferenceable(52) %0) #10
  %11 = trunc i64 %7 to i32
  %12 = add i32 %10, %11
  ret i32 %12
}